target datalayout = "e-m:e-p270:32:32-p271:32:32-p272:64:64-i64:64-i128:128-f80:128-n8:16:32:64-S128"
target triple = "x86_64-pc-linux-gnu"

@.str.1 = private unnamed_addr constant [11 x i8] c"jsonpath.c\00", align 1
@.str.2 = private unnamed_addr constant [3 x i8] c"&&\00", align 1
@.str.3 = private unnamed_addr constant [3 x i8] c"||\00", align 1
@.str.4 = private unnamed_addr constant [3 x i8] c"==\00", align 1
@.str.5 = private unnamed_addr constant [3 x i8] c"!=\00", align 1
@.str.6 = private unnamed_addr constant [2 x i8] c"<\00", align 1
@.str.7 = private unnamed_addr constant [2 x i8] c">\00", align 1
@.str.8 = private unnamed_addr constant [3 x i8] c"<=\00", align 1
@.str.9 = private unnamed_addr constant [3 x i8] c">=\00", align 1
@.str.10 = private unnamed_addr constant [2 x i8] c"+\00", align 1
@.str.11 = private unnamed_addr constant [2 x i8] c"-\00", align 1
@.str.12 = private unnamed_addr constant [2 x i8] c"*\00", align 1
@.str.13 = private unnamed_addr constant [2 x i8] c"/\00", align 1
@.str.14 = private unnamed_addr constant [2 x i8] c"%\00", align 1
@.str.15 = private unnamed_addr constant [5 x i8] c"type\00", align 1
@.str.16 = private unnamed_addr constant [5 x i8] c"size\00", align 1
@.str.17 = private unnamed_addr constant [4 x i8] c"abs\00", align 1
@.str.18 = private unnamed_addr constant [6 x i8] c"floor\00", align 1
@.str.19 = private unnamed_addr constant [8 x i8] c"ceiling\00", align 1
@.str.20 = private unnamed_addr constant [7 x i8] c"double\00", align 1
@.str.21 = private unnamed_addr constant [9 x i8] c"datetime\00", align 1
@.str.22 = private unnamed_addr constant [9 x i8] c"keyvalue\00", align 1
@.str.23 = private unnamed_addr constant [12 x i8] c"starts with\00", align 1
@.str.24 = private unnamed_addr constant [11 x i8] c"like_regex\00", align 1
@.str.25 = private unnamed_addr constant [7 x i8] c"bigint\00", align 1
@.str.26 = private unnamed_addr constant [8 x i8] c"boolean\00", align 1
@.str.27 = private unnamed_addr constant [5 x i8] c"date\00", align 1
@.str.28 = private unnamed_addr constant [8 x i8] c"decimal\00", align 1
@.str.29 = private unnamed_addr constant [8 x i8] c"integer\00", align 1
@.str.30 = private unnamed_addr constant [7 x i8] c"number\00", align 1
@.str.31 = private unnamed_addr constant [7 x i8] c"string\00", align 1
@.str.32 = private unnamed_addr constant [5 x i8] c"time\00", align 1
@.str.33 = private unnamed_addr constant [8 x i8] c"time_tz\00", align 1
@.str.34 = private unnamed_addr constant [10 x i8] c"timestamp\00", align 1
@.str.35 = private unnamed_addr constant [13 x i8] c"timestamp_tz\00", align 1
@.str.36 = private unnamed_addr constant [36 x i8] c"unrecognized jsonpath item type: %d\00", align 1
@__func__.jspOperationName = private unnamed_addr constant [17 x i8] c"jspOperationName\00", align 1

; Function Attrs: nounwind uwtable
define dso_local ptr @jspOperationName(i32 noundef %0) #0 {
  %2 = alloca ptr, align 8
  %3 = alloca i32, align 4
  store i32 %0, ptr %3, align 4
  %4 = load i32, ptr %3, align 4
  switch i32 %4, label %39 [
    i32 4, label %5
    i32 5, label %6
    i32 8, label %7
    i32 9, label %8
    i32 10, label %9
    i32 11, label %10
    i32 12, label %11
    i32 13, label %12
    i32 14, label %13
    i32 19, label %13
    i32 15, label %14
    i32 20, label %14
    i32 16, label %15
    i32 17, label %16
    i32 18, label %17
    i32 31, label %18
    i32 32, label %19
    i32 33, label %20
    i32 34, label %21
    i32 35, label %22
    i32 36, label %23
    i32 37, label %24
    i32 38, label %25
    i32 41, label %26
    i32 42, label %27
    i32 43, label %28
    i32 44, label %29
    i32 45, label %30
    i32 46, label %31
    i32 47, label %32
    i32 48, label %33
    i32 49, label %34
    i32 50, label %35
    i32 51, label %36
    i32 52, label %37
    i32 53, label %38
  ]

5:                                                ; preds = %1
  store ptr @.str.2, ptr %2, align 8
  br label %50

6:                                                ; preds = %1
  store ptr @.str.3, ptr %2, align 8
  br label %50

7:                                                ; preds = %1
  store ptr @.str.4, ptr %2, align 8
  br label %50

8:                                                ; preds = %1
  store ptr @.str.5, ptr %2, align 8
  br label %50

9:                                                ; preds = %1
  store ptr @.str.6, ptr %2, align 8
  br label %50

10:                                               ; preds = %1
  store ptr @.str.7, ptr %2, align 8
  br label %50

11:                                               ; preds = %1
  store ptr @.str.8, ptr %2, align 8
  br label %50

12:                                               ; preds = %1
  store ptr @.str.9, ptr %2, align 8
  br label %50

13:                                               ; preds = %1, %1
  store ptr @.str.10, ptr %2, align 8
  br label %50

14:                                               ; preds = %1, %1
  store ptr @.str.11, ptr %2, align 8
  br label %50

15:                                               ; preds = %1
  store ptr @.str.12, ptr %2, align 8
  br label %50

16:                                               ; preds = %1
  store ptr @.str.13, ptr %2, align 8
  br label %50

17:                                               ; preds = %1
  store ptr @.str.14, ptr %2, align 8
  br label %50

18:                                               ; preds = %1
  store ptr @.str.15, ptr %2, align 8
  br label %50

19:                                               ; preds = %1
  store ptr @.str.16, ptr %2, align 8
  br label %50

20:                                               ; preds = %1
  store ptr @.str.17, ptr %2, align 8
  br label %50

21:                                               ; preds = %1
  store ptr @.str.18, ptr %2, align 8
  br label %50

22:                                               ; preds = %1
  store ptr @.str.19, ptr %2, align 8
  br label %50

23:                                               ; preds = %1
  store ptr @.str.20, ptr %2, align 8
  br label %50

24:                                               ; preds = %1
  store ptr @.str.21, ptr %2, align 8
  br label %50

25:                                               ; preds = %1
  store ptr @.str.22, ptr %2, align 8
  br label %50

26:                                               ; preds = %1
  store ptr @.str.23, ptr %2, align 8
  br label %50

27:                                               ; preds = %1
  store ptr @.str.24, ptr %2, align 8
  br label %50

28:                                               ; preds = %1
  store ptr @.str.25, ptr %2, align 8
  br label %50

29:                                               ; preds = %1
  store ptr @.str.26, ptr %2, align 8
  br label %50

30:                                               ; preds = %1
  store ptr @.str.27, ptr %2, align 8
  br label %50

31:                                               ; preds = %1
  store ptr @.str.28, ptr %2, align 8
  br label %50

32:                                               ; preds = %1
  store ptr @.str.29, ptr %2, align 8
  br label %50

33:                                               ; preds = %1
  store ptr @.str.30, ptr %2, align 8
  br label %50

34:                                               ; preds = %1
  store ptr @.str.31, ptr %2, align 8
  br label %50

35:                                               ; preds = %1
  store ptr @.str.32, ptr %2, align 8
  br label %50

36:                                               ; preds = %1
  store ptr @.str.33, ptr %2, align 8
  br label %50

37:                                               ; preds = %1
  store ptr @.str.34, ptr %2, align 8
  br label %50

38:                                               ; preds = %1
  store ptr @.str.35, ptr %2, align 8
  br label %50

39:                                               ; preds = %1
  br label %40

40:                                               ; preds = %39
  br i1 true, label %41, label %43

41:                                               ; preds = %40
  %42 = call zeroext i1 @errstart_cold(i32 noundef 21, ptr noundef null) #11
  br i1 %42, label %45, label %48

43:                                               ; preds = %40
  %44 = call zeroext i1 @errstart(i32 noundef 21, ptr noundef null)
  br i1 %44, label %45, label %48

45:                                               ; preds = %43, %41
  %46 = load i32, ptr %3, align 4
  %47 = call i32 (ptr, ...) @errmsg_internal(ptr noundef @.str.36, i32 noundef %46)
  call void @errfinish(ptr noundef @.str.1, i32 noundef 918, ptr noundef @__func__.jspOperationName)
  br label %48

48:                                               ; preds = %45, %43, %41
  unreachable

49:                                               ; No predecessors!
  store ptr null, ptr %2, align 8
  br label %50

50:                                               ; preds = %49, %38, %37, %36, %35, %34, %33, %32, %31, %30, %29, %28, %27, %26, %25, %24, %23, %22, %21, %20, %19, %18, %17, %16, %15, %14, %13, %12, %11, %10, %9, %8, %7, %6, %5
  %51 = load ptr, ptr %2, align 8
  ret ptr %51
}